Archive member included because of file (symbol)

c:/program files/gnu tools arm embedded/4.8 2014q2/bin/../lib/gcc/arm-none-eabi/4.8.4/armv7e-m\libgcc.a(_arm_addsubsf3.o)
                              ..\obj\dht22.o (__aeabi_fadd)
c:/program files/gnu tools arm embedded/4.8 2014q2/bin/../lib/gcc/arm-none-eabi/4.8.4/armv7e-m\libgcc.a(_arm_muldivsf3.o)
                              ..\obj\bsp.o (__aeabi_fmul)
c:/program files/gnu tools arm embedded/4.8 2014q2/bin/../lib/gcc/arm-none-eabi/4.8.4/armv7e-m\libgcc.a(_arm_cmpsf2.o)
                              ..\obj\main.o (__aeabi_fcmplt)

Allocating common symbols
Common symbol       size              file

DHT22data           0x6               ..\obj\bsp.o
datoRecibido        0x2               ..\obj\main.o

Discarded input sections

 .text          0x00000000        0x0 ..\obj\stm32f4xx_syscfg.o
 .data          0x00000000        0x0 ..\obj\stm32f4xx_syscfg.o
 .bss           0x00000000        0x0 ..\obj\stm32f4xx_syscfg.o
 .text.SYSCFG_DeInit
                0x00000000       0x1c ..\obj\stm32f4xx_syscfg.o
 .text.SYSCFG_MemoryRemapConfig
                0x00000000       0x20 ..\obj\stm32f4xx_syscfg.o
 .text.SYSCFG_ETH_MediaInterfaceConfig
                0x00000000       0x1c ..\obj\stm32f4xx_syscfg.o
 .text.SYSCFG_CompensationCellCmd
                0x00000000       0x20 ..\obj\stm32f4xx_syscfg.o
 .text.SYSCFG_GetCompensationCellStatus
                0x00000000       0x34 ..\obj\stm32f4xx_syscfg.o
 .text          0x00000000        0x0 ..\obj\stm32f4xx_usart.o
 .data          0x00000000        0x0 ..\obj\stm32f4xx_usart.o
 .bss           0x00000000        0x0 ..\obj\stm32f4xx_usart.o
 .text.USART_DeInit
                0x00000000       0xd0 ..\obj\stm32f4xx_usart.o
 .text.USART_StructInit
                0x00000000       0x38 ..\obj\stm32f4xx_usart.o
 .text.USART_ClockInit
                0x00000000       0x54 ..\obj\stm32f4xx_usart.o
 .text.USART_ClockStructInit
                0x00000000       0x2c ..\obj\stm32f4xx_usart.o
 .text.USART_SetPrescaler
                0x00000000       0x38 ..\obj\stm32f4xx_usart.o
 .text.USART_OverSampling8Cmd
                0x00000000       0x44 ..\obj\stm32f4xx_usart.o
 .text.USART_OneBitMethodCmd
                0x00000000       0x40 ..\obj\stm32f4xx_usart.o
 .text.USART_SendData
                0x00000000       0x24 ..\obj\stm32f4xx_usart.o
 .text.USART_SetAddress
                0x00000000       0x38 ..\obj\stm32f4xx_usart.o
 .text.USART_ReceiverWakeUpCmd
                0x00000000       0x40 ..\obj\stm32f4xx_usart.o
 .text.USART_WakeUpConfig
                0x00000000       0x38 ..\obj\stm32f4xx_usart.o
 .text.USART_LINBreakDetectLengthConfig
                0x00000000       0x38 ..\obj\stm32f4xx_usart.o
 .text.USART_LINCmd
                0x00000000       0x40 ..\obj\stm32f4xx_usart.o
 .text.USART_SendBreak
                0x00000000       0x24 ..\obj\stm32f4xx_usart.o
 .text.USART_HalfDuplexCmd
                0x00000000       0x40 ..\obj\stm32f4xx_usart.o
 .text.USART_SetGuardTime
                0x00000000       0x3c ..\obj\stm32f4xx_usart.o
 .text.USART_SmartCardCmd
                0x00000000       0x40 ..\obj\stm32f4xx_usart.o
 .text.USART_SmartCardNACKCmd
                0x00000000       0x40 ..\obj\stm32f4xx_usart.o
 .text.USART_IrDAConfig
                0x00000000       0x38 ..\obj\stm32f4xx_usart.o
 .text.USART_IrDACmd
                0x00000000       0x40 ..\obj\stm32f4xx_usart.o
 .text.USART_DMACmd
                0x00000000       0x48 ..\obj\stm32f4xx_usart.o
 .text.USART_ClearFlag
                0x00000000       0x20 ..\obj\stm32f4xx_usart.o
 .text.USART_GetITStatus
                0x00000000       0xb0 ..\obj\stm32f4xx_usart.o
 .text          0x00000000        0x0 ..\obj\startup_stm32f4xx.o
 .data          0x00000000        0x0 ..\obj\startup_stm32f4xx.o
 .bss           0x00000000        0x0 ..\obj\startup_stm32f4xx.o
 .text          0x00000000        0x0 ..\obj\main.o
 .data          0x00000000        0x0 ..\obj\main.o
 .text          0x00000000        0x0 ..\obj\stm32f4xx_rcc.o
 .bss           0x00000000        0x0 ..\obj\stm32f4xx_rcc.o
 .text.RCC_DeInit
                0x00000000       0x50 ..\obj\stm32f4xx_rcc.o
 .text.RCC_HSEConfig
                0x00000000       0x24 ..\obj\stm32f4xx_rcc.o
 .text.RCC_WaitForHSEStartUp
                0x00000000       0x50 ..\obj\stm32f4xx_rcc.o
 .text.RCC_AdjustHSICalibrationValue
                0x00000000       0x3c ..\obj\stm32f4xx_rcc.o
 .text.RCC_HSICmd
                0x00000000       0x20 ..\obj\stm32f4xx_rcc.o
 .text.RCC_LSEConfig
                0x00000000       0x40 ..\obj\stm32f4xx_rcc.o
 .text.RCC_LSICmd
                0x00000000       0x20 ..\obj\stm32f4xx_rcc.o
 .text.RCC_PLLConfig
                0x00000000       0x3c ..\obj\stm32f4xx_rcc.o
 .text.RCC_PLLCmd
                0x00000000       0x20 ..\obj\stm32f4xx_rcc.o
 .text.RCC_PLLI2SConfig
                0x00000000       0x28 ..\obj\stm32f4xx_rcc.o
 .text.RCC_PLLI2SCmd
                0x00000000       0x20 ..\obj\stm32f4xx_rcc.o
 .text.RCC_ClockSecuritySystemCmd
                0x00000000       0x20 ..\obj\stm32f4xx_rcc.o
 .text.RCC_MCO1Config
                0x00000000       0x3c ..\obj\stm32f4xx_rcc.o
 .text.RCC_MCO2Config
                0x00000000       0x3c ..\obj\stm32f4xx_rcc.o
 .text.RCC_SYSCLKConfig
                0x00000000       0x38 ..\obj\stm32f4xx_rcc.o
 .text.RCC_GetSYSCLKSource
                0x00000000       0x20 ..\obj\stm32f4xx_rcc.o
 .text.RCC_HCLKConfig
                0x00000000       0x38 ..\obj\stm32f4xx_rcc.o
 .text.RCC_PCLK1Config
                0x00000000       0x38 ..\obj\stm32f4xx_rcc.o
 .text.RCC_PCLK2Config
                0x00000000       0x38 ..\obj\stm32f4xx_rcc.o
 .text.RCC_RTCCLKConfig
                0x00000000       0x5c ..\obj\stm32f4xx_rcc.o
 .text.RCC_RTCCLKCmd
                0x00000000       0x20 ..\obj\stm32f4xx_rcc.o
 .text.RCC_BackupResetCmd
                0x00000000       0x20 ..\obj\stm32f4xx_rcc.o
 .text.RCC_I2SCLKConfig
                0x00000000       0x1c ..\obj\stm32f4xx_rcc.o
 .text.RCC_AHB2PeriphClockCmd
                0x00000000       0x3c ..\obj\stm32f4xx_rcc.o
 .text.RCC_AHB3PeriphClockCmd
                0x00000000       0x3c ..\obj\stm32f4xx_rcc.o
 .text.RCC_AHB1PeriphResetCmd
                0x00000000       0x3c ..\obj\stm32f4xx_rcc.o
 .text.RCC_AHB2PeriphResetCmd
                0x00000000       0x3c ..\obj\stm32f4xx_rcc.o
 .text.RCC_AHB3PeriphResetCmd
                0x00000000       0x3c ..\obj\stm32f4xx_rcc.o
 .text.RCC_APB1PeriphResetCmd
                0x00000000       0x3c ..\obj\stm32f4xx_rcc.o
 .text.RCC_APB2PeriphResetCmd
                0x00000000       0x3c ..\obj\stm32f4xx_rcc.o
 .text.RCC_AHB1PeriphClockLPModeCmd
                0x00000000       0x3c ..\obj\stm32f4xx_rcc.o
 .text.RCC_AHB2PeriphClockLPModeCmd
                0x00000000       0x3c ..\obj\stm32f4xx_rcc.o
 .text.RCC_AHB3PeriphClockLPModeCmd
                0x00000000       0x3c ..\obj\stm32f4xx_rcc.o
 .text.RCC_APB1PeriphClockLPModeCmd
                0x00000000       0x3c ..\obj\stm32f4xx_rcc.o
 .text.RCC_APB2PeriphClockLPModeCmd
                0x00000000       0x3c ..\obj\stm32f4xx_rcc.o
 .text.RCC_ITConfig
                0x00000000       0x48 ..\obj\stm32f4xx_rcc.o
 .text.RCC_GetFlagStatus
                0x00000000       0x74 ..\obj\stm32f4xx_rcc.o
 .text.RCC_ClearFlag
                0x00000000       0x1c ..\obj\stm32f4xx_rcc.o
 .text.RCC_GetITStatus
                0x00000000       0x38 ..\obj\stm32f4xx_rcc.o
 .text.RCC_ClearITPendingBit
                0x00000000       0x20 ..\obj\stm32f4xx_rcc.o
 .text          0x00000000        0x0 ..\obj\stm32f4xx_adc.o
 .data          0x00000000        0x0 ..\obj\stm32f4xx_adc.o
 .bss           0x00000000        0x0 ..\obj\stm32f4xx_adc.o
 .text.ADC_DeInit
                0x00000000       0x1c ..\obj\stm32f4xx_adc.o
 .text.ADC_AnalogWatchdogCmd
                0x00000000       0x38 ..\obj\stm32f4xx_adc.o
 .text.ADC_AnalogWatchdogThresholdsConfig
                0x00000000       0x28 ..\obj\stm32f4xx_adc.o
 .text.ADC_AnalogWatchdogSingleChannelConfig
                0x00000000       0x38 ..\obj\stm32f4xx_adc.o
 .text.ADC_TempSensorVrefintCmd
                0x00000000       0x38 ..\obj\stm32f4xx_adc.o
 .text.ADC_VBATCmd
                0x00000000       0x38 ..\obj\stm32f4xx_adc.o
 .text.ADC_GetSoftwareStartConvStatus
                0x00000000       0x30 ..\obj\stm32f4xx_adc.o
 .text.ADC_EOCOnEachRegularChannelCmd
                0x00000000       0x38 ..\obj\stm32f4xx_adc.o
 .text.ADC_ContinuousModeCmd
                0x00000000       0x38 ..\obj\stm32f4xx_adc.o
 .text.ADC_DiscModeChannelCountConfig
                0x00000000       0x44 ..\obj\stm32f4xx_adc.o
 .text.ADC_DiscModeCmd
                0x00000000       0x38 ..\obj\stm32f4xx_adc.o
 .text.ADC_GetMultiModeConversionValue
                0x00000000       0x18 ..\obj\stm32f4xx_adc.o
 .text.ADC_DMACmd
                0x00000000       0x38 ..\obj\stm32f4xx_adc.o
 .text.ADC_DMARequestAfterLastTransferCmd
                0x00000000       0x38 ..\obj\stm32f4xx_adc.o
 .text.ADC_MultiModeDMARequestAfterLastTransferCmd
                0x00000000       0x38 ..\obj\stm32f4xx_adc.o
 .text.ADC_InjectedChannelConfig
                0x00000000      0x114 ..\obj\stm32f4xx_adc.o
 .text.ADC_InjectedSequencerLengthConfig
                0x00000000       0x44 ..\obj\stm32f4xx_adc.o
 .text.ADC_SetInjectedOffset
                0x00000000       0x30 ..\obj\stm32f4xx_adc.o
 .text.ADC_ExternalTrigInjectedConvConfig
                0x00000000       0x34 ..\obj\stm32f4xx_adc.o
 .text.ADC_ExternalTrigInjectedConvEdgeConfig
                0x00000000       0x34 ..\obj\stm32f4xx_adc.o
 .text.ADC_SoftwareStartInjectedConv
                0x00000000       0x20 ..\obj\stm32f4xx_adc.o
 .text.ADC_GetSoftwareStartInjectedConvCmdStatus
                0x00000000       0x30 ..\obj\stm32f4xx_adc.o
 .text.ADC_AutoInjectedConvCmd
                0x00000000       0x38 ..\obj\stm32f4xx_adc.o
 .text.ADC_InjectedDiscModeCmd
                0x00000000       0x38 ..\obj\stm32f4xx_adc.o
 .text.ADC_GetInjectedConversionValue
                0x00000000       0x30 ..\obj\stm32f4xx_adc.o
 .text.ADC_ITConfig
                0x00000000       0x50 ..\obj\stm32f4xx_adc.o
 .text.ADC_ClearFlag
                0x00000000       0x20 ..\obj\stm32f4xx_adc.o
 .text.ADC_GetITStatus
                0x00000000       0x5c ..\obj\stm32f4xx_adc.o
 .text.ADC_ClearITPendingBit
                0x00000000       0x2c ..\obj\stm32f4xx_adc.o
 .text          0x00000000        0x0 ..\obj\stm32f4xx_gpio.o
 .data          0x00000000        0x0 ..\obj\stm32f4xx_gpio.o
 .bss           0x00000000        0x0 ..\obj\stm32f4xx_gpio.o
 .text.GPIO_DeInit
                0x00000000      0x120 ..\obj\stm32f4xx_gpio.o
 .text.GPIO_PinLockConfig
                0x00000000       0x44 ..\obj\stm32f4xx_gpio.o
 .text.GPIO_ReadInputData
                0x00000000       0x1c ..\obj\stm32f4xx_gpio.o
 .text.GPIO_ReadOutputDataBit
                0x00000000       0x34 ..\obj\stm32f4xx_gpio.o
 .text.GPIO_ReadOutputData
                0x00000000       0x1c ..\obj\stm32f4xx_gpio.o
 .text.GPIO_WriteBit
                0x00000000       0x30 ..\obj\stm32f4xx_gpio.o
 .text.GPIO_Write
                0x00000000       0x1c ..\obj\stm32f4xx_gpio.o
 .text          0x00000000        0x0 ..\obj\system_stm32f4xx.o
 .data          0x00000000       0x14 ..\obj\system_stm32f4xx.o
 .bss           0x00000000        0x0 ..\obj\system_stm32f4xx.o
 .text.SystemInit
                0x00000000       0x58 ..\obj\system_stm32f4xx.o
 .text.SystemCoreClockUpdate
                0x00000000       0xf8 ..\obj\system_stm32f4xx.o
 .text.SetSysClock
                0x00000000       0xf4 ..\obj\system_stm32f4xx.o
 .debug_info    0x00000000      0x592 ..\obj\system_stm32f4xx.o
 .debug_abbrev  0x00000000      0x136 ..\obj\system_stm32f4xx.o
 .debug_aranges
                0x00000000       0x30 ..\obj\system_stm32f4xx.o
 .debug_ranges  0x00000000       0x20 ..\obj\system_stm32f4xx.o
 .debug_line    0x00000000      0x230 ..\obj\system_stm32f4xx.o
 .debug_str     0x00000000      0x3cd ..\obj\system_stm32f4xx.o
 .comment       0x00000000       0x71 ..\obj\system_stm32f4xx.o
 .ARM.attributes
                0x00000000       0x33 ..\obj\system_stm32f4xx.o
 .debug_frame   0x00000000       0x64 ..\obj\system_stm32f4xx.o
 .text          0x00000000        0x0 ..\obj\syscalls.o
 .data          0x00000000        0x0 ..\obj\syscalls.o
 .bss           0x00000000        0x4 ..\obj\syscalls.o
 .text._sbrk    0x00000000       0x40 ..\obj\syscalls.o
 .text.link     0x00000000       0x1c ..\obj\syscalls.o
 .text._close   0x00000000       0x18 ..\obj\syscalls.o
 .text._fstat   0x00000000       0x20 ..\obj\syscalls.o
 .text._isatty  0x00000000       0x18 ..\obj\syscalls.o
 .text._lseek   0x00000000       0x1c ..\obj\syscalls.o
 .text._read    0x00000000       0x1c ..\obj\syscalls.o
 .text._write   0x00000000       0x1c ..\obj\syscalls.o
 .text.abort    0x00000000        0x8 ..\obj\syscalls.o
 .debug_info    0x00000000      0x3ee ..\obj\syscalls.o
 .debug_abbrev  0x00000000       0xe2 ..\obj\syscalls.o
 .debug_aranges
                0x00000000       0x60 ..\obj\syscalls.o
 .debug_ranges  0x00000000       0x50 ..\obj\syscalls.o
 .debug_line    0x00000000      0x195 ..\obj\syscalls.o
 .debug_str     0x00000000      0x31b ..\obj\syscalls.o
 .comment       0x00000000       0x71 ..\obj\syscalls.o
 .ARM.attributes
                0x00000000       0x33 ..\obj\syscalls.o
 .debug_frame   0x00000000      0x108 ..\obj\syscalls.o
 .text          0x00000000        0x0 ..\obj\bsp.o
 .bss           0x00000000        0x0 ..\obj\bsp.o
 .text.led_off  0x00000000       0x30 ..\obj\bsp.o
 .text.leer_temperatura
                0x00000000       0x18 ..\obj\bsp.o
 .text.enviar_dato
                0x00000000       0x30 ..\obj\bsp.o
 .text.transmit_string
                0x00000000       0x40 ..\obj\bsp.o
 .text          0x00000000        0x0 ..\obj\stm32f4xx_exti.o
 .data          0x00000000        0x0 ..\obj\stm32f4xx_exti.o
 .bss           0x00000000        0x0 ..\obj\stm32f4xx_exti.o
 .text.EXTI_DeInit
                0x00000000       0x34 ..\obj\stm32f4xx_exti.o
 .text.EXTI_StructInit
                0x00000000       0x2c ..\obj\stm32f4xx_exti.o
 .text.EXTI_GenerateSWInterrupt
                0x00000000       0x24 ..\obj\stm32f4xx_exti.o
 .text.EXTI_GetFlagStatus
                0x00000000       0x34 ..\obj\stm32f4xx_exti.o
 .text.EXTI_ClearITPendingBit
                0x00000000       0x1c ..\obj\stm32f4xx_exti.o
 .text          0x00000000        0x0 ..\obj\dht22.o
 .data          0x00000000        0x0 ..\obj\dht22.o
 .bss           0x00000000        0x0 ..\obj\dht22.o
 .text.DHT22getTemperature
                0x00000000       0x70 ..\obj\dht22.o
 .text.convertCtoF
                0x00000000       0x38 ..\obj\dht22.o
 .text          0x00000000        0x0 ..\obj\misc.o
 .data          0x00000000        0x0 ..\obj\misc.o
 .bss           0x00000000        0x0 ..\obj\misc.o
 .text.NVIC_PriorityGroupConfig
                0x00000000       0x24 ..\obj\misc.o
 .text.NVIC_SetVectorTable
                0x00000000       0x2c ..\obj\misc.o
 .text.NVIC_SystemLPConfig
                0x00000000       0x40 ..\obj\misc.o
 .text.SysTick_CLKSourceConfig
                0x00000000       0x38 ..\obj\misc.o
 .text          0x00000000        0x0 ..\obj\stm32f4xx_tim.o
 .data          0x00000000        0x0 ..\obj\stm32f4xx_tim.o
 .bss           0x00000000        0x0 ..\obj\stm32f4xx_tim.o
 .text.TIM_DeInit
                0x00000000      0x1bc ..\obj\stm32f4xx_tim.o
 .text.TIM_PrescalerConfig
                0x00000000       0x28 ..\obj\stm32f4xx_tim.o
 .text.TIM_CounterModeConfig
                0x00000000       0x38 ..\obj\stm32f4xx_tim.o
 .text.TIM_SetAutoreload
                0x00000000       0x1c ..\obj\stm32f4xx_tim.o
 .text.TIM_GetPrescaler
                0x00000000       0x1c ..\obj\stm32f4xx_tim.o
 .text.TIM_UpdateDisableConfig
                0x00000000       0x40 ..\obj\stm32f4xx_tim.o
 .text.TIM_UpdateRequestConfig
                0x00000000       0x40 ..\obj\stm32f4xx_tim.o
 .text.TIM_ARRPreloadConfig
                0x00000000       0x40 ..\obj\stm32f4xx_tim.o
 .text.TIM_SelectOnePulseMode
                0x00000000       0x38 ..\obj\stm32f4xx_tim.o
 .text.TIM_SetClockDivision
                0x00000000       0x38 ..\obj\stm32f4xx_tim.o
 .text.TIM_OC1Init
                0x00000000       0xf4 ..\obj\stm32f4xx_tim.o
 .text.TIM_OC2Init
                0x00000000      0x110 ..\obj\stm32f4xx_tim.o
 .text.TIM_OC3Init
                0x00000000      0x10c ..\obj\stm32f4xx_tim.o
 .text.TIM_OC4Init
                0x00000000       0xcc ..\obj\stm32f4xx_tim.o
 .text.TIM_SelectOCxM
                0x00000000       0xac ..\obj\stm32f4xx_tim.o
 .text.TIM_SetCompare1
                0x00000000       0x1c ..\obj\stm32f4xx_tim.o
 .text.TIM_SetCompare2
                0x00000000       0x1c ..\obj\stm32f4xx_tim.o
 .text.TIM_SetCompare3
                0x00000000       0x1c ..\obj\stm32f4xx_tim.o
 .text.TIM_SetCompare4
                0x00000000       0x1c ..\obj\stm32f4xx_tim.o
 .text.TIM_ForcedOC1Config
                0x00000000       0x38 ..\obj\stm32f4xx_tim.o
 .text.TIM_ForcedOC2Config
                0x00000000       0x3c ..\obj\stm32f4xx_tim.o
 .text.TIM_ForcedOC3Config
                0x00000000       0x38 ..\obj\stm32f4xx_tim.o
 .text.TIM_ForcedOC4Config
                0x00000000       0x3c ..\obj\stm32f4xx_tim.o
 .text.TIM_OC1PreloadConfig
                0x00000000       0x38 ..\obj\stm32f4xx_tim.o
 .text.TIM_OC2PreloadConfig
                0x00000000       0x3c ..\obj\stm32f4xx_tim.o
 .text.TIM_OC3PreloadConfig
                0x00000000       0x38 ..\obj\stm32f4xx_tim.o
 .text.TIM_OC4PreloadConfig
                0x00000000       0x3c ..\obj\stm32f4xx_tim.o
 .text.TIM_OC1FastConfig
                0x00000000       0x38 ..\obj\stm32f4xx_tim.o
 .text.TIM_OC2FastConfig
                0x00000000       0x3c ..\obj\stm32f4xx_tim.o
 .text.TIM_OC3FastConfig
                0x00000000       0x38 ..\obj\stm32f4xx_tim.o
 .text.TIM_OC4FastConfig
                0x00000000       0x3c ..\obj\stm32f4xx_tim.o
 .text.TIM_ClearOC1Ref
                0x00000000       0x38 ..\obj\stm32f4xx_tim.o
 .text.TIM_ClearOC2Ref
                0x00000000       0x3c ..\obj\stm32f4xx_tim.o
 .text.TIM_ClearOC3Ref
                0x00000000       0x38 ..\obj\stm32f4xx_tim.o
 .text.TIM_ClearOC4Ref
                0x00000000       0x3c ..\obj\stm32f4xx_tim.o
 .text.TIM_OC1PolarityConfig
                0x00000000       0x38 ..\obj\stm32f4xx_tim.o
 .text.TIM_OC1NPolarityConfig
                0x00000000       0x38 ..\obj\stm32f4xx_tim.o
 .text.TIM_OC2PolarityConfig
                0x00000000       0x3c ..\obj\stm32f4xx_tim.o
 .text.TIM_OC2NPolarityConfig
                0x00000000       0x3c ..\obj\stm32f4xx_tim.o
 .text.TIM_OC3PolarityConfig
                0x00000000       0x3c ..\obj\stm32f4xx_tim.o
 .text.TIM_OC3NPolarityConfig
                0x00000000       0x3c ..\obj\stm32f4xx_tim.o
 .text.TIM_OC4PolarityConfig
                0x00000000       0x3c ..\obj\stm32f4xx_tim.o
 .text.TIM_CCxCmd
                0x00000000       0x54 ..\obj\stm32f4xx_tim.o
 .text.TIM_CCxNCmd
                0x00000000       0x54 ..\obj\stm32f4xx_tim.o
 .text.TIM_ICInit
                0x00000000       0xa8 ..\obj\stm32f4xx_tim.o
 .text.TIM_ICStructInit
                0x00000000       0x30 ..\obj\stm32f4xx_tim.o
 .text.TIM_PWMIConfig
                0x00000000       0xb8 ..\obj\stm32f4xx_tim.o
 .text.TIM_GetCapture1
                0x00000000       0x18 ..\obj\stm32f4xx_tim.o
 .text.TIM_GetCapture2
                0x00000000       0x18 ..\obj\stm32f4xx_tim.o
 .text.TIM_GetCapture3
                0x00000000       0x18 ..\obj\stm32f4xx_tim.o
 .text.TIM_GetCapture4
                0x00000000       0x18 ..\obj\stm32f4xx_tim.o
 .text.TIM_SetIC1Prescaler
                0x00000000       0x38 ..\obj\stm32f4xx_tim.o
 .text.TIM_SetIC2Prescaler
                0x00000000       0x3c ..\obj\stm32f4xx_tim.o
 .text.TIM_SetIC3Prescaler
                0x00000000       0x38 ..\obj\stm32f4xx_tim.o
 .text.TIM_SetIC4Prescaler
                0x00000000       0x3c ..\obj\stm32f4xx_tim.o
 .text.TIM_BDTRConfig
                0x00000000       0x50 ..\obj\stm32f4xx_tim.o
 .text.TIM_BDTRStructInit
                0x00000000       0x3c ..\obj\stm32f4xx_tim.o
 .text.TIM_CtrlPWMOutputs
                0x00000000       0x4c ..\obj\stm32f4xx_tim.o
 .text.TIM_SelectCOM
                0x00000000       0x40 ..\obj\stm32f4xx_tim.o
 .text.TIM_CCPreloadControl
                0x00000000       0x40 ..\obj\stm32f4xx_tim.o
 .text.TIM_GenerateEvent
                0x00000000       0x1c ..\obj\stm32f4xx_tim.o
 .text.TIM_GetFlagStatus
                0x00000000       0x38 ..\obj\stm32f4xx_tim.o
 .text.TIM_ClearFlag
                0x00000000       0x20 ..\obj\stm32f4xx_tim.o
 .text.TIM_DMAConfig
                0x00000000       0x28 ..\obj\stm32f4xx_tim.o
 .text.TIM_DMACmd
                0x00000000       0x48 ..\obj\stm32f4xx_tim.o
 .text.TIM_SelectCCDMA
                0x00000000       0x40 ..\obj\stm32f4xx_tim.o
 .text.TIM_InternalClockConfig
                0x00000000       0x24 ..\obj\stm32f4xx_tim.o
 .text.TIM_ITRxExternalClockConfig
                0x00000000       0x2c ..\obj\stm32f4xx_tim.o
 .text.TIM_TIxExternalClockConfig
                0x00000000       0x54 ..\obj\stm32f4xx_tim.o
 .text.TIM_ETRClockMode1Config
                0x00000000       0x50 ..\obj\stm32f4xx_tim.o
 .text.TIM_ETRClockMode2Config
                0x00000000       0x30 ..\obj\stm32f4xx_tim.o
 .text.TIM_SelectInputTrigger
                0x00000000       0x38 ..\obj\stm32f4xx_tim.o
 .text.TIM_SelectOutputTrigger
                0x00000000       0x38 ..\obj\stm32f4xx_tim.o
 .text.TIM_SelectSlaveMode
                0x00000000       0x38 ..\obj\stm32f4xx_tim.o
 .text.TIM_SelectMasterSlaveMode
                0x00000000       0x38 ..\obj\stm32f4xx_tim.o
 .text.TIM_ETRConfig
                0x00000000       0x48 ..\obj\stm32f4xx_tim.o
 .text.TIM_EncoderInterfaceConfig
                0x00000000       0x8c ..\obj\stm32f4xx_tim.o
 .text.TIM_SelectHallSensor
                0x00000000       0x40 ..\obj\stm32f4xx_tim.o
 .text.TIM_RemapConfig
                0x00000000       0x20 ..\obj\stm32f4xx_tim.o
 .text.TI1_Config
                0x00000000       0x78 ..\obj\stm32f4xx_tim.o
 .text.TI2_Config
                0x00000000       0x8c ..\obj\stm32f4xx_tim.o
 .text.TI3_Config
                0x00000000       0x84 ..\obj\stm32f4xx_tim.o
 .text.TI4_Config
                0x00000000       0x90 ..\obj\stm32f4xx_tim.o
 .data          0x00000000        0x0 c:/program files/gnu tools arm embedded/4.8 2014q2/bin/../lib/gcc/arm-none-eabi/4.8.4/armv7e-m\libgcc.a(_arm_addsubsf3.o)
 .bss           0x00000000        0x0 c:/program files/gnu tools arm embedded/4.8 2014q2/bin/../lib/gcc/arm-none-eabi/4.8.4/armv7e-m\libgcc.a(_arm_addsubsf3.o)
 .data          0x00000000        0x0 c:/program files/gnu tools arm embedded/4.8 2014q2/bin/../lib/gcc/arm-none-eabi/4.8.4/armv7e-m\libgcc.a(_arm_muldivsf3.o)
 .bss           0x00000000        0x0 c:/program files/gnu tools arm embedded/4.8 2014q2/bin/../lib/gcc/arm-none-eabi/4.8.4/armv7e-m\libgcc.a(_arm_muldivsf3.o)
 .data          0x00000000        0x0 c:/program files/gnu tools arm embedded/4.8 2014q2/bin/../lib/gcc/arm-none-eabi/4.8.4/armv7e-m\libgcc.a(_arm_cmpsf2.o)
 .bss           0x00000000        0x0 c:/program files/gnu tools arm embedded/4.8 2014q2/bin/../lib/gcc/arm-none-eabi/4.8.4/armv7e-m\libgcc.a(_arm_cmpsf2.o)

Memory Configuration

Name             Origin             Length             Attributes
rom              0x08000000         0x00040000         xr
ram              0x20000000         0x00010000         xrw
*default*        0x00000000         0xffffffff

Linker script and memory map

                0x20010000                _eram = 0x20010000

.text           0x08000000     0x21e8
 *(.isr_vector)
 .isr_vector    0x08000000      0x188 ..\obj\startup_stm32f4xx.o
                0x08000000                g_pfnVectors
 *(.text*)
 .text.SYSCFG_EXTILineConfig
                0x08000188       0x7c ..\obj\stm32f4xx_syscfg.o
                0x08000188                SYSCFG_EXTILineConfig
 .text.USART_Init
                0x08000204      0x174 ..\obj\stm32f4xx_usart.o
                0x08000204                USART_Init
 .text.USART_Cmd
                0x08000378       0x40 ..\obj\stm32f4xx_usart.o
                0x08000378                USART_Cmd
 .text.USART_ReceiveData
                0x080003b8       0x20 ..\obj\stm32f4xx_usart.o
                0x080003b8                USART_ReceiveData
 .text.USART_ITConfig
                0x080003d8       0x90 ..\obj\stm32f4xx_usart.o
                0x080003d8                USART_ITConfig
 .text.USART_GetFlagStatus
                0x08000468       0x38 ..\obj\stm32f4xx_usart.o
                0x08000468                USART_GetFlagStatus
 .text.USART_ClearITPendingBit
                0x080004a0       0x38 ..\obj\stm32f4xx_usart.o
                0x080004a0                USART_ClearITPendingBit
 .text.Default_Reset_Handler
                0x080004d8       0x5c ..\obj\startup_stm32f4xx.o
                0x080004d8                Default_Reset_Handler
                0x080004d8                Reset_Handler
 .text.Default_Handler
                0x08000534        0x8 ..\obj\startup_stm32f4xx.o
                0x08000534                RTC_Alarm_IRQHandler
                0x08000534                HASH_RNG_IRQHandler
                0x08000534                EXTI2_IRQHandler
                0x08000534                TIM8_CC_IRQHandler
                0x08000534                DebugMon_Handler
                0x08000534                TIM1_CC_IRQHandler
                0x08000534                DMA2_Stream5_IRQHandler
                0x08000534                HardFault_Handler
                0x08000534                DMA1_Stream5_IRQHandler
                0x08000534                SysTick_Handler
                0x08000534                PVD_IRQHandler
                0x08000534                SDIO_IRQHandler
                0x08000534                TAMP_STAMP_IRQHandler
                0x08000534                PendSV_Handler
                0x08000534                NMI_Handler
                0x08000534                CAN2_RX1_IRQHandler
                0x08000534                EXTI3_IRQHandler
                0x08000534                TIM8_TRG_COM_TIM14_IRQHandler
                0x08000534                TIM1_UP_TIM10_IRQHandler
                0x08000534                TIM8_UP_TIM13_IRQHandler
                0x08000534                I2C3_ER_IRQHandler
                0x08000534                I2C2_EV_IRQHandler
                0x08000534                DMA1_Stream2_IRQHandler
                0x08000534                CAN1_RX0_IRQHandler
                0x08000534                FPU_IRQHandler
                0x08000534                OTG_HS_WKUP_IRQHandler
                0x08000534                UsageFault_Handler
                0x08000534                CAN2_SCE_IRQHandler
                0x08000534                DMA2_Stream2_IRQHandler
                0x08000534                SPI1_IRQHandler
                0x08000534                TIM6_DAC_IRQHandler
                0x08000534                TIM1_BRK_TIM9_IRQHandler
                0x08000534                DCMI_IRQHandler
                0x08000534                CAN2_RX0_IRQHandler
                0x08000534                DMA2_Stream3_IRQHandler
                0x08000534                USART6_IRQHandler
                0x08000534                CRYP_IRQHandler
                0x08000534                CAN1_RX1_IRQHandler
                0x08000534                UART5_IRQHandler
                0x08000534                DMA2_Stream0_IRQHandler
                0x08000534                TIM4_IRQHandler
                0x08000534                I2C1_EV_IRQHandler
                0x08000534                DMA1_Stream6_IRQHandler
                0x08000534                DMA1_Stream1_IRQHandler
                0x08000534                UART4_IRQHandler
                0x08000534                TIM3_IRQHandler
                0x08000534                RCC_IRQHandler
                0x08000534                TIM8_BRK_TIM12_IRQHandler
                0x08000534                EXTI15_10_IRQHandler
                0x08000534                ADC_IRQHandler
                0x08000534                DMA1_Stream7_IRQHandler
                0x08000534                TIM7_IRQHandler
                0x08000534                CAN2_TX_IRQHandler
                0x08000534                TIM5_IRQHandler
                0x08000534                DMA2_Stream7_IRQHandler
                0x08000534                I2C3_EV_IRQHandler
                0x08000534                EXTI9_5_IRQHandler
                0x08000534                RTC_WKUP_IRQHandler
                0x08000534                ETH_WKUP_IRQHandler
                0x08000534                SPI2_IRQHandler
                0x08000534                OTG_HS_EP1_IN_IRQHandler
                0x08000534                MemManage_Handler
                0x08000534                DMA1_Stream0_IRQHandler
                0x08000534                CAN1_TX_IRQHandler
                0x08000534                SVC_Handler
                0x08000534                EXTI4_IRQHandler
                0x08000534                FSMC_IRQHandler
                0x08000534                ETH_IRQHandler
                0x08000534                OTG_HS_EP1_OUT_IRQHandler
                0x08000534                WWDG_IRQHandler
                0x08000534                OTG_FS_WKUP_IRQHandler
                0x08000534                TIM1_TRG_COM_TIM11_IRQHandler
                0x08000534                OTG_HS_IRQHandler
                0x08000534                EXTI1_IRQHandler
                0x08000534                USART2_IRQHandler
                0x08000534                I2C2_ER_IRQHandler
                0x08000534                DMA2_Stream1_IRQHandler
                0x08000534                CAN1_SCE_IRQHandler
                0x08000534                FLASH_IRQHandler
                0x08000534                DMA2_Stream4_IRQHandler
                0x08000534                BusFault_Handler
                0x08000534                USART1_IRQHandler
                0x08000534                OTG_FS_IRQHandler
                0x08000534                SPI3_IRQHandler
                0x08000534                DMA1_Stream4_IRQHandler
                0x08000534                I2C1_ER_IRQHandler
                0x08000534                DMA2_Stream6_IRQHandler
                0x08000534                DMA1_Stream3_IRQHandler
 .text.main     0x0800053c      0x1fc ..\obj\main.o
                0x0800053c                main
 .text.APP_dato_rx
                0x08000738       0x28 ..\obj\main.o
                0x08000738                APP_dato_rx
 .text.APP_ISR_10ms
                0x08000760       0x34 ..\obj\main.o
                0x08000760                APP_ISR_10ms
 .text.APP_ISR_sw
                0x08000794        0xc ..\obj\main.o
                0x08000794                APP_ISR_sw
 .text.RCC_GetClocksFreq
                0x080007a0      0x154 ..\obj\stm32f4xx_rcc.o
                0x080007a0                RCC_GetClocksFreq
 .text.RCC_AHB1PeriphClockCmd
                0x080008f4       0x3c ..\obj\stm32f4xx_rcc.o
                0x080008f4                RCC_AHB1PeriphClockCmd
 .text.RCC_APB1PeriphClockCmd
                0x08000930       0x3c ..\obj\stm32f4xx_rcc.o
                0x08000930                RCC_APB1PeriphClockCmd
 .text.RCC_APB2PeriphClockCmd
                0x0800096c       0x3c ..\obj\stm32f4xx_rcc.o
                0x0800096c                RCC_APB2PeriphClockCmd
 .text.ADC_Init
                0x080009a8       0xa8 ..\obj\stm32f4xx_adc.o
                0x080009a8                ADC_Init
 .text.ADC_StructInit
                0x08000a50       0x3c ..\obj\stm32f4xx_adc.o
                0x08000a50                ADC_StructInit
 .text.ADC_CommonInit
                0x08000a8c       0x50 ..\obj\stm32f4xx_adc.o
                0x08000a8c                ADC_CommonInit
 .text.ADC_CommonStructInit
                0x08000adc       0x2c ..\obj\stm32f4xx_adc.o
                0x08000adc                ADC_CommonStructInit
 .text.ADC_Cmd  0x08000b08       0x38 ..\obj\stm32f4xx_adc.o
                0x08000b08                ADC_Cmd
 .text.ADC_RegularChannelConfig
                0x08000b40      0x188 ..\obj\stm32f4xx_adc.o
                0x08000b40                ADC_RegularChannelConfig
 .text.ADC_SoftwareStartConv
                0x08000cc8       0x20 ..\obj\stm32f4xx_adc.o
                0x08000cc8                ADC_SoftwareStartConv
 .text.ADC_GetConversionValue
                0x08000ce8       0x1c ..\obj\stm32f4xx_adc.o
                0x08000ce8                ADC_GetConversionValue
 .text.ADC_GetFlagStatus
                0x08000d04       0x34 ..\obj\stm32f4xx_adc.o
                0x08000d04                ADC_GetFlagStatus
 .text.GPIO_Init
                0x08000d38      0x11c ..\obj\stm32f4xx_gpio.o
                0x08000d38                GPIO_Init
 .text.GPIO_StructInit
                0x08000e54       0x34 ..\obj\stm32f4xx_gpio.o
                0x08000e54                GPIO_StructInit
 .text.GPIO_ReadInputDataBit
                0x08000e88       0x34 ..\obj\stm32f4xx_gpio.o
                0x08000e88                GPIO_ReadInputDataBit
 .text.GPIO_SetBits
                0x08000ebc       0x1c ..\obj\stm32f4xx_gpio.o
                0x08000ebc                GPIO_SetBits
 .text.GPIO_ResetBits
                0x08000ed8       0x1c ..\obj\stm32f4xx_gpio.o
                0x08000ed8                GPIO_ResetBits
 .text.GPIO_ToggleBits
                0x08000ef4       0x24 ..\obj\stm32f4xx_gpio.o
                0x08000ef4                GPIO_ToggleBits
 .text.GPIO_PinAFConfig
                0x08000f18       0x8c ..\obj\stm32f4xx_gpio.o
                0x08000f18                GPIO_PinAFConfig
 .text.led_on   0x08000fa4       0x30 ..\obj\bsp.o
                0x08000fa4                led_on
 .text.led_toggle
                0x08000fd4       0x30 ..\obj\bsp.o
                0x08000fd4                led_toggle
 .text.leer_sensor
                0x08001004        0xc ..\obj\bsp.o
                0x08001004                leer_sensor
 .text.leer_humedad
                0x08001010       0x18 ..\obj\bsp.o
                0x08001010                leer_humedad
 .text.ventilador_on
                0x08001028       0x30 ..\obj\bsp.o
                0x08001028                ventilador_on
 .text.ventilador_off
                0x08001058       0x30 ..\obj\bsp.o
                0x08001058                ventilador_off
 .text.iluminacion
                0x08001088       0x30 ..\obj\bsp.o
                0x08001088                iluminacion
 .text.leer_temperatura_lm335
                0x080010b8       0x70 ..\obj\bsp.o
                0x080010b8                leer_temperatura_lm335
 .text.get_luz  0x08001128       0x40 ..\obj\bsp.o
                0x08001128                get_luz
 .text.EXTI0_IRQHandler
                0x08001168       0x1c ..\obj\bsp.o
                0x08001168                EXTI0_IRQHandler
 .text.TIM2_IRQHandler
                0x08001184       0x24 ..\obj\bsp.o
                0x08001184                TIM2_IRQHandler
 .text.USART3_IRQHandler
                0x080011a8       0x3c ..\obj\bsp.o
                0x080011a8                USART3_IRQHandler
 .text.bsp_init
                0x080011e4       0x30 ..\obj\bsp.o
                0x080011e4                bsp_init
 .text.bsp_led_init
                0x08001214       0x38 ..\obj\bsp.o
                0x08001214                bsp_led_init
 .text.bsp_vent_init
                0x0800124c       0x38 ..\obj\bsp.o
                0x0800124c                bsp_vent_init
 .text.bsp_iluminacion_init
                0x08001284       0x38 ..\obj\bsp.o
                0x08001284                bsp_iluminacion_init
 .text.bsp_sw_init
                0x080012bc       0x74 ..\obj\bsp.o
                0x080012bc                bsp_sw_init
 .text.bsp_uart_init
                0x08001330       0xc4 ..\obj\bsp.o
                0x08001330                bsp_uart_init
 .text.bsp_adc_init_lm335
                0x080013f4       0x80 ..\obj\bsp.o
                0x080013f4                bsp_adc_init_lm335
 .text.bsp_adc_init_ldr
                0x08001474       0x80 ..\obj\bsp.o
                0x08001474                bsp_adc_init_ldr
 .text.bsp_timer3_config
                0x080014f4       0x60 ..\obj\bsp.o
                0x080014f4                bsp_timer3_config
 .text.bsp_timer2_config
                0x08001554       0x50 ..\obj\bsp.o
                0x08001554                bsp_timer2_config
 .text.EXTI_Init
                0x080015a4       0xdc ..\obj\stm32f4xx_exti.o
                0x080015a4                EXTI_Init
 .text.EXTI_ClearFlag
                0x08001680       0x1c ..\obj\stm32f4xx_exti.o
                0x08001680                EXTI_ClearFlag
 .text.EXTI_GetITStatus
                0x0800169c       0x48 ..\obj\stm32f4xx_exti.o
                0x0800169c                EXTI_GetITStatus
 .text.DHT22pinIn
                0x080016e4       0x30 ..\obj\dht22.o
                0x080016e4                DHT22pinIn
 .text.DHT22pinOut
                0x08001714       0x30 ..\obj\dht22.o
                0x08001714                DHT22pinOut
 .text.DHT22_Init
                0x08001744       0x20 ..\obj\dht22.o
                0x08001744                DHT22_Init
 .text.DHT22_Read
                0x08001764      0x13c ..\obj\dht22.o
                0x08001764                DHT22_Read
 .text.DHT22getHumidity
                0x080018a0       0x58 ..\obj\dht22.o
                0x080018a0                DHT22getHumidity
 .text.NVIC_Init
                0x080018f8       0xbc ..\obj\misc.o
                0x080018f8                NVIC_Init
 .text.TIM_TimeBaseInit
                0x080019b4       0xd4 ..\obj\stm32f4xx_tim.o
                0x080019b4                TIM_TimeBaseInit
 .text.TIM_TimeBaseStructInit
                0x08001a88       0x34 ..\obj\stm32f4xx_tim.o
                0x08001a88                TIM_TimeBaseStructInit
 .text.TIM_SetCounter
                0x08001abc       0x1c ..\obj\stm32f4xx_tim.o
                0x08001abc                TIM_SetCounter
 .text.TIM_GetCounter
                0x08001ad8       0x18 ..\obj\stm32f4xx_tim.o
                0x08001ad8                TIM_GetCounter
 .text.TIM_Cmd  0x08001af0       0x40 ..\obj\stm32f4xx_tim.o
                0x08001af0                TIM_Cmd
 .text.TIM_OCStructInit
                0x08001b30       0x44 ..\obj\stm32f4xx_tim.o
                0x08001b30                TIM_OCStructInit
 .text.TIM_ITConfig
                0x08001b74       0x48 ..\obj\stm32f4xx_tim.o
                0x08001b74                TIM_ITConfig
 .text.TIM_GetITStatus
                0x08001bbc       0x54 ..\obj\stm32f4xx_tim.o
                0x08001bbc                TIM_GetITStatus
 .text.TIM_ClearITPendingBit
                0x08001c10       0x20 ..\obj\stm32f4xx_tim.o
                0x08001c10                TIM_ClearITPendingBit
 .text          0x08001c30      0x21c c:/program files/gnu tools arm embedded/4.8 2014q2/bin/../lib/gcc/arm-none-eabi/4.8.4/armv7e-m\libgcc.a(_arm_addsubsf3.o)
                0x08001c30                __aeabi_frsub
                0x08001c38                __subsf3
                0x08001c38                __aeabi_fsub
                0x08001c3c                __aeabi_fadd
                0x08001c3c                __addsf3
                0x08001d9c                __aeabi_ui2f
                0x08001d9c                __floatunsisf
                0x08001da4                __aeabi_i2f
                0x08001da4                __floatsisf
                0x08001dc0                __aeabi_ul2f
                0x08001dc0                __floatundisf
                0x08001dd0                __aeabi_l2f
                0x08001dd0                __floatdisf
 .text          0x08001e4c      0x2a0 c:/program files/gnu tools arm embedded/4.8 2014q2/bin/../lib/gcc/arm-none-eabi/4.8.4/armv7e-m\libgcc.a(_arm_muldivsf3.o)
                0x08001e4c                __mulsf3
                0x08001e4c                __aeabi_fmul
                0x08001fb4                __aeabi_fdiv
                0x08001fb4                __divsf3
 .text          0x080020ec       0xec c:/program files/gnu tools arm embedded/4.8 2014q2/bin/../lib/gcc/arm-none-eabi/4.8.4/armv7e-m\libgcc.a(_arm_cmpsf2.o)
                0x080020ec                __gesf2
                0x080020ec                __gtsf2
                0x080020f4                __lesf2
                0x080020f4                __ltsf2
                0x080020fc                __nesf2
                0x080020fc                __eqsf2
                0x080020fc                __cmpsf2
                0x0800215c                __aeabi_cfrcmple
                0x08002164                __aeabi_cfcmpeq
                0x08002164                __aeabi_cfcmple
                0x08002174                __aeabi_fcmpeq
                0x08002188                __aeabi_fcmplt
                0x0800219c                __aeabi_fcmple
                0x080021b0                __aeabi_fcmpge
                0x080021c4                __aeabi_fcmpgt
 *(.init)
 *(.fini)
 *crtbegin.o(.ctors)
 *crtbegin?.o(.ctors)
 *(EXCLUDE_FILE(*crtend.o *crtend?.o) .ctors)
 *(SORT(.ctors.*))
 *(.ctors)
 *crtbegin.o(.dtors)
 *crtbegin?.o(.dtors)
 *(EXCLUDE_FILE(*crtend.o *crtend?.o) .dtors)
 *(SORT(.dtors.*))
 *(.dtors)
 *(.rodata*)
 .rodata        0x080021d8       0x10 ..\obj\bsp.o
                0x080021d8                leds
                0x080021e0                vent
 *(.eh_fram e*)

.glue_7         0x080021e8        0x0
 .glue_7        0x00000000        0x0 linker stubs

.glue_7t        0x080021e8        0x0
 .glue_7t       0x00000000        0x0 linker stubs

.vfp11_veneer   0x080021e8        0x0
 .vfp11_veneer  0x00000000        0x0 linker stubs

.v4_bx          0x080021e8        0x0
 .v4_bx         0x00000000        0x0 linker stubs

.iplt           0x080021e8        0x0
 .iplt          0x00000000        0x0 ..\obj\stm32f4xx_syscfg.o

.rel.dyn        0x080021e8        0x0
 .rel.iplt      0x00000000        0x0 ..\obj\stm32f4xx_syscfg.o

.ARM.extab
 *(.ARM.extab* .gnu.linkonce.armextab.*)
                0x080021e8                __exidx_start = .

.ARM.exidx
 *(.ARM.exidx* .gnu.linkonce.armexidx.*)
                0x080021e8                __exidx_end = .
                0x080021e8                __etext = .
                0x080021e8                _sidata = __etext

.data           0x20000000       0x30 load address 0x080021e8
                0x20000000                __data_start__ = .
                0x20000000                _sdata = __data_start__
 *(vtable)
 *(.data*)
 .data          0x20000000       0x10 ..\obj\stm32f4xx_rcc.o
 .data          0x20000010       0x20 ..\obj\bsp.o
                0x20000010                leds_port
                0x20000020                vent_port
                0x20000030                . = ALIGN (0x4)
                0x20000030                PROVIDE (__preinit_array_start, .)
 *(.preinit_array)
                0x20000030                PROVIDE (__preinit_array_end, .)
                0x20000030                . = ALIGN (0x4)
                0x20000030                PROVIDE (__init_array_start, .)
 *(SORT(.init_array.*))
 *(.init_array)
                0x20000030                PROVIDE (__init_array_end, .)
                0x20000030                . = ALIGN (0x4)
                0x20000030                PROVIDE (__fini_array_start, .)
 *(SORT(.fini_array.*))
 *(.fini_array)
                0x20000030                PROVIDE (__fini_array_end, .)
 *(.jcr*)
                0x20000030                . = ALIGN (0x4)
                0x20000030                __data_end__ = .
                0x20000030                _edata = __data_end__

.igot.plt       0x20000030        0x0 load address 0x08002218
 .igot.plt      0x00000000        0x0 ..\obj\stm32f4xx_syscfg.o

.bss            0x20000030       0x14 load address 0x08002218
                0x20000030                . = ALIGN (0x4)
                0x20000030                __bss_start__ = .
                0x20000030                _sbss = __bss_start__
 *(.bss*)
 .bss           0x20000030        0x8 ..\obj\main.o
                0x20000030                count
                0x20000034                flagRx
 *(COMMON)
 COMMON         0x20000038        0x2 ..\obj\main.o
                0x20000038                datoRecibido
 *fill*         0x2000003a        0x2 
 COMMON         0x2000003c        0x6 ..\obj\bsp.o
                0x2000003c                DHT22data
                0x20000044                . = ALIGN (0x4)
 *fill*         0x20000042        0x2 
                0x20000044                __bss_end__ = .
                0x20000044                _ebss = __bss_end__

.heap           0x20000044        0x0
                0x20000044                __end__ = .
                0x20000044                _end = __end__
                0x20000044                end = __end__
 *(.heap*)
                0x20000044                __HeapLimit = .

.co_stack       0x20000044      0x804 load address 0x0800222c
                0x20000048                . = ALIGN (0x8)
 *fill*         0x20000044        0x4 
 *(.co_stack .co_stack.*)
 .co_stack      0x20000048      0x800 ..\obj\startup_stm32f4xx.o
                0x20000048                pulStack
                0x20010000                __StackTop = (ORIGIN (ram) + 0x10000)
                0x2000f7fc                __StackLimit = (__StackTop - SIZEOF (.co_stack))
                0x20010000                PROVIDE (__stack, __StackTop)
                0x00000001                ASSERT ((__StackLimit >= __HeapLimit), region ram  overflowed with stack)
LOAD ..\obj\stm32f4xx_syscfg.o
LOAD ..\obj\stm32f4xx_usart.o
LOAD ..\obj\startup_stm32f4xx.o
LOAD ..\obj\main.o
LOAD ..\obj\stm32f4xx_rcc.o
LOAD ..\obj\stm32f4xx_adc.o
LOAD ..\obj\stm32f4xx_gpio.o
LOAD ..\obj\system_stm32f4xx.o
LOAD ..\obj\syscalls.o
LOAD ..\obj\bsp.o
LOAD ..\obj\stm32f4xx_exti.o
LOAD ..\obj\dht22.o
LOAD ..\obj\misc.o
LOAD ..\obj\stm32f4xx_tim.o
LOAD c:/program files/gnu tools arm embedded/4.8 2014q2/bin/../lib/gcc/arm-none-eabi/4.8.4/../../../../arm-none-eabi/lib/armv7e-m\libm.a
LOAD c:/program files/gnu tools arm embedded/4.8 2014q2/bin/../lib/gcc/arm-none-eabi/4.8.4/armv7e-m\libgcc.a
LOAD c:/program files/gnu tools arm embedded/4.8 2014q2/bin/../lib/gcc/arm-none-eabi/4.8.4/../../../../arm-none-eabi/lib/armv7e-m\libc.a
START GROUP
LOAD c:/program files/gnu tools arm embedded/4.8 2014q2/bin/../lib/gcc/arm-none-eabi/4.8.4/armv7e-m\libgcc.a
LOAD c:/program files/gnu tools arm embedded/4.8 2014q2/bin/../lib/gcc/arm-none-eabi/4.8.4/../../../../arm-none-eabi/lib/armv7e-m\libg.a
LOAD c:/program files/gnu tools arm embedded/4.8 2014q2/bin/../lib/gcc/arm-none-eabi/4.8.4/../../../../arm-none-eabi/lib/armv7e-m\libc.a
END GROUP
OUTPUT(LAB_n2_FSM.elf elf32-littlearm)

.debug_info     0x00000000     0x68cc
 .debug_info    0x00000000      0x26c ..\obj\stm32f4xx_syscfg.o
 .debug_info    0x0000026c      0x9c2 ..\obj\stm32f4xx_usart.o
 .debug_info    0x00000c2e       0xed ..\obj\startup_stm32f4xx.o
 .debug_info    0x00000d1b      0x23e ..\obj\main.o
 .debug_info    0x00000f59      0xc4d ..\obj\stm32f4xx_rcc.o
 .debug_info    0x00001ba6      0xc38 ..\obj\stm32f4xx_adc.o
 .debug_info    0x000027de      0x602 ..\obj\stm32f4xx_gpio.o
 .debug_info    0x00002de0     0x1037 ..\obj\bsp.o
 .debug_info    0x00003e17      0x347 ..\obj\stm32f4xx_exti.o
 .debug_info    0x0000415e      0x5d0 ..\obj\dht22.o
 .debug_info    0x0000472e      0x53d ..\obj\misc.o
 .debug_info    0x00004c6b     0x1c61 ..\obj\stm32f4xx_tim.o

.debug_abbrev   0x00000000     0x10d2
 .debug_abbrev  0x00000000      0x131 ..\obj\stm32f4xx_syscfg.o
 .debug_abbrev  0x00000131      0x155 ..\obj\stm32f4xx_usart.o
 .debug_abbrev  0x00000286       0xb0 ..\obj\startup_stm32f4xx.o
 .debug_abbrev  0x00000336       0xc3 ..\obj\main.o
 .debug_abbrev  0x000003f9      0x1e3 ..\obj\stm32f4xx_rcc.o
 .debug_abbrev  0x000005dc      0x196 ..\obj\stm32f4xx_adc.o
 .debug_abbrev  0x00000772      0x1a3 ..\obj\stm32f4xx_gpio.o
 .debug_abbrev  0x00000915      0x1f9 ..\obj\bsp.o
 .debug_abbrev  0x00000b0e      0x1a5 ..\obj\stm32f4xx_exti.o
 .debug_abbrev  0x00000cb3      0x153 ..\obj\dht22.o
 .debug_abbrev  0x00000e06      0x145 ..\obj\misc.o
 .debug_abbrev  0x00000f4b      0x187 ..\obj\stm32f4xx_tim.o

.debug_aranges  0x00000000      0x9b8
 .debug_aranges
                0x00000000       0x48 ..\obj\stm32f4xx_syscfg.o
 .debug_aranges
                0x00000048      0x100 ..\obj\stm32f4xx_usart.o
 .debug_aranges
                0x00000148       0x28 ..\obj\startup_stm32f4xx.o
 .debug_aranges
                0x00000170       0x38 ..\obj\main.o
 .debug_aranges
                0x000001a8      0x178 ..\obj\stm32f4xx_rcc.o
 .debug_aranges
                0x00000320      0x148 ..\obj\stm32f4xx_adc.o
 .debug_aranges
                0x00000468       0x88 ..\obj\stm32f4xx_gpio.o
 .debug_aranges
                0x000004f0       0xe8 ..\obj\bsp.o
 .debug_aranges
                0x000005d8       0x58 ..\obj\stm32f4xx_exti.o
 .debug_aranges
                0x00000630       0x50 ..\obj\dht22.o
 .debug_aranges
                0x00000680       0x40 ..\obj\misc.o
 .debug_aranges
                0x000006c0      0x2f8 ..\obj\stm32f4xx_tim.o

.debug_ranges   0x00000000      0x8f8
 .debug_ranges  0x00000000       0x38 ..\obj\stm32f4xx_syscfg.o
 .debug_ranges  0x00000038       0xf0 ..\obj\stm32f4xx_usart.o
 .debug_ranges  0x00000128       0x18 ..\obj\startup_stm32f4xx.o
 .debug_ranges  0x00000140       0x28 ..\obj\main.o
 .debug_ranges  0x00000168      0x168 ..\obj\stm32f4xx_rcc.o
 .debug_ranges  0x000002d0      0x138 ..\obj\stm32f4xx_adc.o
 .debug_ranges  0x00000408       0x78 ..\obj\stm32f4xx_gpio.o
 .debug_ranges  0x00000480       0xd8 ..\obj\bsp.o
 .debug_ranges  0x00000558       0x48 ..\obj\stm32f4xx_exti.o
 .debug_ranges  0x000005a0       0x40 ..\obj\dht22.o
 .debug_ranges  0x000005e0       0x30 ..\obj\misc.o
 .debug_ranges  0x00000610      0x2e8 ..\obj\stm32f4xx_tim.o

.debug_line     0x00000000     0x33f4
 .debug_line    0x00000000      0x283 ..\obj\stm32f4xx_syscfg.o
 .debug_line    0x00000283      0x531 ..\obj\stm32f4xx_usart.o
 .debug_line    0x000007b4       0xc4 ..\obj\startup_stm32f4xx.o
 .debug_line    0x00000878      0x1bb ..\obj\main.o
 .debug_line    0x00000a33      0x629 ..\obj\stm32f4xx_rcc.o
 .debug_line    0x0000105c      0x5e1 ..\obj\stm32f4xx_adc.o
 .debug_line    0x0000163d      0x3ce ..\obj\stm32f4xx_gpio.o
 .debug_line    0x00001a0b      0x591 ..\obj\bsp.o
 .debug_line    0x00001f9c      0x334 ..\obj\stm32f4xx_exti.o
 .debug_line    0x000022d0      0x35c ..\obj\dht22.o
 .debug_line    0x0000262c      0x2d4 ..\obj\misc.o
 .debug_line    0x00002900      0xaf4 ..\obj\stm32f4xx_tim.o

.debug_str      0x00000000     0x3248
 .debug_str     0x00000000      0x2b9 ..\obj\stm32f4xx_syscfg.o
                                0x317 (size before relaxing)
 .debug_str     0x000002b9      0x504 ..\obj\stm32f4xx_usart.o
                                0x6b2 (size before relaxing)
 .debug_str     0x000007bd       0xd3 ..\obj\startup_stm32f4xx.o
                                0x16a (size before relaxing)
 .debug_str     0x00000890      0x186 ..\obj\main.o
                                0x2e7 (size before relaxing)
 .debug_str     0x00000a16      0x606 ..\obj\stm32f4xx_rcc.o
                                0x873 (size before relaxing)
 .debug_str     0x0000101c      0x65d ..\obj\stm32f4xx_adc.o
                                0x827 (size before relaxing)
 .debug_str     0x00001679      0x345 ..\obj\stm32f4xx_gpio.o
                                0x4c6 (size before relaxing)
 .debug_str     0x000019be      0xa8d ..\obj\bsp.o
                                0xff4 (size before relaxing)
 .debug_str     0x0000244b      0x123 ..\obj\stm32f4xx_exti.o
                                0x37c (size before relaxing)
 .debug_str     0x0000256e       0xe8 ..\obj\dht22.o
                                0x4e9 (size before relaxing)
 .debug_str     0x00002656      0x1d1 ..\obj\misc.o
                                0x3f1 (size before relaxing)
 .debug_str     0x00002827      0xa21 ..\obj\stm32f4xx_tim.o
                                0xdf3 (size before relaxing)

.comment        0x00000000       0x70
 .comment       0x00000000       0x70 ..\obj\stm32f4xx_syscfg.o
                                 0x71 (size before relaxing)
 .comment       0x00000000       0x71 ..\obj\stm32f4xx_usart.o
 .comment       0x00000000       0x71 ..\obj\startup_stm32f4xx.o
 .comment       0x00000000       0x71 ..\obj\main.o
 .comment       0x00000000       0x71 ..\obj\stm32f4xx_rcc.o
 .comment       0x00000000       0x71 ..\obj\stm32f4xx_adc.o
 .comment       0x00000000       0x71 ..\obj\stm32f4xx_gpio.o
 .comment       0x00000000       0x71 ..\obj\bsp.o
 .comment       0x00000000       0x71 ..\obj\stm32f4xx_exti.o
 .comment       0x00000000       0x71 ..\obj\dht22.o
 .comment       0x00000000       0x71 ..\obj\misc.o
 .comment       0x00000000       0x71 ..\obj\stm32f4xx_tim.o

.ARM.attributes
                0x00000000       0x33
 .ARM.attributes
                0x00000000       0x33 ..\obj\stm32f4xx_syscfg.o
 .ARM.attributes
                0x00000033       0x33 ..\obj\stm32f4xx_usart.o
 .ARM.attributes
                0x00000066       0x33 ..\obj\startup_stm32f4xx.o
 .ARM.attributes
                0x00000099       0x33 ..\obj\main.o
 .ARM.attributes
                0x000000cc       0x33 ..\obj\stm32f4xx_rcc.o
 .ARM.attributes
                0x000000ff       0x33 ..\obj\stm32f4xx_adc.o
 .ARM.attributes
                0x00000132       0x33 ..\obj\stm32f4xx_gpio.o
 .ARM.attributes
                0x00000165       0x33 ..\obj\bsp.o
 .ARM.attributes
                0x00000198       0x33 ..\obj\stm32f4xx_exti.o
 .ARM.attributes
                0x000001cb       0x33 ..\obj\dht22.o
 .ARM.attributes
                0x000001fe       0x33 ..\obj\misc.o
 .ARM.attributes
                0x00000231       0x33 ..\obj\stm32f4xx_tim.o
 .ARM.attributes
                0x00000264       0x1e c:/program files/gnu tools arm embedded/4.8 2014q2/bin/../lib/gcc/arm-none-eabi/4.8.4/armv7e-m\libgcc.a(_arm_addsubsf3.o)
 .ARM.attributes
                0x00000282       0x1e c:/program files/gnu tools arm embedded/4.8 2014q2/bin/../lib/gcc/arm-none-eabi/4.8.4/armv7e-m\libgcc.a(_arm_muldivsf3.o)
 .ARM.attributes
                0x000002a0       0x1e c:/program files/gnu tools arm embedded/4.8 2014q2/bin/../lib/gcc/arm-none-eabi/4.8.4/armv7e-m\libgcc.a(_arm_cmpsf2.o)

.debug_frame    0x00000000     0x1f60
 .debug_frame   0x00000000       0xbc ..\obj\stm32f4xx_syscfg.o
 .debug_frame   0x000000bc      0x344 ..\obj\stm32f4xx_usart.o
 .debug_frame   0x00000400       0x48 ..\obj\startup_stm32f4xx.o
 .debug_frame   0x00000448       0x80 ..\obj\main.o
 .debug_frame   0x000004c8      0x4d8 ..\obj\stm32f4xx_rcc.o
 .debug_frame   0x000009a0      0x434 ..\obj\stm32f4xx_adc.o
 .debug_frame   0x00000dd4      0x19c ..\obj\stm32f4xx_gpio.o
 .debug_frame   0x00000f70      0x340 ..\obj\bsp.o
 .debug_frame   0x000012b0       0xec ..\obj\stm32f4xx_exti.o
 .debug_frame   0x0000139c       0xec ..\obj\dht22.o
 .debug_frame   0x00001488       0x9c ..\obj\misc.o
 .debug_frame   0x00001524      0xa3c ..\obj\stm32f4xx_tim.o
